target datalayout = "e-m:e-p270:32:32-p271:32:32-p272:64:64-i64:64-i128:128-f80:128-n8:16:32:64-S128"
target triple = "x86_64-pc-linux-gnu"

%struct._object = type { %union.anon, ptr }
%union.anon = type { i64 }
%struct._typeobject = type { %struct.PyVarObject, ptr, i64, i64, ptr, i64, ptr, ptr, ptr, ptr, ptr, ptr, ptr, ptr, ptr, ptr, ptr, ptr, ptr, i64, ptr, ptr, ptr, ptr, i64, ptr, ptr, ptr, ptr, ptr, ptr, ptr, ptr, ptr, i64, ptr, ptr, ptr, ptr, ptr, ptr, ptr, ptr, ptr, ptr, ptr, i32, ptr, ptr, i8, i16 }
%struct.PyVarObject = type { %struct._object, i64 }
%struct.tagCDataObject = type { %struct._object, ptr, i32, ptr, i64, i64, i64, ptr, %union.value }
%union.value = type { x86_fp80 }

@PyExc_TypeError = external global ptr, align 8
@PyExc_ValueError = external global ptr, align 8
@.str.121 = private unnamed_addr constant [23 x i8] c"can't delete attribute\00", align 1
@.str.123 = private unnamed_addr constant [47 x i8] c"unicode string expected instead of %s instance\00", align 1
@.str.124 = private unnamed_addr constant [16 x i8] c"string too long\00", align 1

; Function Attrs: inlinehint nounwind uwtable
define internal void @UNLOCK_PTR(ptr noundef %0) #2 {
  %2 = alloca ptr, align 8
  store ptr %0, ptr %2, align 8, !tbaa !39
  ret void
}

; Function Attrs: inlinehint nounwind uwtable
define internal void @LOCK_PTR(ptr noundef %0) #2 {
  %2 = alloca ptr, align 8
  store ptr %0, ptr %2, align 8, !tbaa !39
  ret void
}

; Function Attrs: inlinehint nounwind uwtable
define internal i32 @PyType_HasFeature(ptr noundef %0, i64 noundef %1) #2 {
  %3 = alloca ptr, align 8
  %4 = alloca i64, align 8
  %5 = alloca i64, align 8
  store ptr %0, ptr %3, align 8, !tbaa !50
  store i64 %1, ptr %4, align 8, !tbaa !23
  call void @llvm.lifetime.start.p0(i64 8, ptr %5) #9
  %6 = load ptr, ptr %3, align 8, !tbaa !50
  %7 = getelementptr inbounds nuw %struct._typeobject, ptr %6, i32 0, i32 19
  %8 = load i64, ptr %7, align 8, !tbaa !85
  store i64 %8, ptr %5, align 8, !tbaa !23
  %9 = load i64, ptr %5, align 8, !tbaa !23
  %10 = load i64, ptr %4, align 8, !tbaa !23
  %11 = and i64 %9, %10
  %12 = icmp ne i64 %11, 0
  %13 = zext i1 %12 to i32
  call void @llvm.lifetime.end.p0(i64 8, ptr %5) #9
  ret i32 %13
}

; Function Attrs: inlinehint nounwind uwtable
define internal ptr @_Py_TYPE(ptr noundef %0) #2 {
  %2 = alloca ptr, align 8
  store ptr %0, ptr %2, align 8, !tbaa !7
  %3 = load ptr, ptr %2, align 8, !tbaa !7
  %4 = getelementptr inbounds nuw %struct._object, ptr %3, i32 0, i32 1
  %5 = load ptr, ptr %4, align 8, !tbaa !84
  ret ptr %5
}

; Function Attrs: nounwind uwtable
define internal i32 @WCharArray_set_value(ptr noundef %0, ptr noundef %1, ptr noundef %2) #0 {
  %4 = alloca i32, align 4
  %5 = alloca ptr, align 8
  %6 = alloca ptr, align 8
  %7 = alloca ptr, align 8
  %8 = alloca ptr, align 8
  %9 = alloca i32, align 4
  %10 = alloca i64, align 8
  %11 = alloca i64, align 8
  %12 = alloca i64, align 8
  store ptr %0, ptr %5, align 8, !tbaa !7
  store ptr %1, ptr %6, align 8, !tbaa !7
  store ptr %2, ptr %7, align 8, !tbaa !3
  call void @llvm.lifetime.start.p0(i64 8, ptr %8) #9
  %13 = load ptr, ptr %5, align 8, !tbaa !7
  store ptr %13, ptr %8, align 8, !tbaa !39
  %14 = load ptr, ptr %6, align 8, !tbaa !7
  %15 = icmp eq ptr %14, null
  br i1 %15, label %16, label %18

16:                                               ; preds = %3
  %17 = load ptr, ptr @PyExc_TypeError, align 8, !tbaa !7
  call void @PyErr_SetString(ptr noundef %17, ptr noundef @.str.121)
  store i32 -1, ptr %4, align 4
  store i32 1, ptr %9, align 4
  br label %60

18:                                               ; preds = %3
  %19 = load ptr, ptr %6, align 8, !tbaa !7
  %20 = call ptr @_Py_TYPE(ptr noundef %19)
  %21 = call i32 @PyType_HasFeature(ptr noundef %20, i64 noundef 268435456)
  %22 = icmp ne i32 %21, 0
  br i1 %22, label %30, label %23

23:                                               ; preds = %18
  %24 = load ptr, ptr @PyExc_TypeError, align 8, !tbaa !7
  %25 = load ptr, ptr %6, align 8, !tbaa !7
  %26 = call ptr @_Py_TYPE(ptr noundef %25)
  %27 = getelementptr inbounds nuw %struct._typeobject, ptr %26, i32 0, i32 1
  %28 = load ptr, ptr %27, align 8, !tbaa !57
  %29 = call ptr (ptr, ptr, ...) @PyErr_Format(ptr noundef %24, ptr noundef @.str.123, ptr noundef %28)
  store i32 -1, ptr %4, align 4
  store i32 1, ptr %9, align 4
  br label %60

30:                                               ; preds = %18
  call void @llvm.lifetime.start.p0(i64 8, ptr %10) #9
  %31 = load ptr, ptr %8, align 8, !tbaa !39
  %32 = getelementptr inbounds nuw %struct.tagCDataObject, ptr %31, i32 0, i32 4
  %33 = load i64, ptr %32, align 8, !tbaa !45
  %34 = udiv i64 %33, 4
  store i64 %34, ptr %10, align 8, !tbaa !23
  call void @llvm.lifetime.start.p0(i64 8, ptr %11) #9
  %35 = load ptr, ptr %6, align 8, !tbaa !7
  %36 = call i64 @PyUnicode_AsWideChar(ptr noundef %35, ptr noundef null, i64 noundef 0)
  store i64 %36, ptr %11, align 8, !tbaa !23
  %37 = load i64, ptr %11, align 8, !tbaa !23
  %38 = icmp slt i64 %37, 0
  br i1 %38, label %39, label %40

39:                                               ; preds = %30
  store i32 -1, ptr %4, align 4
  store i32 1, ptr %9, align 4
  br label %59

40:                                               ; preds = %30
  %41 = load i64, ptr %11, align 8, !tbaa !23
  %42 = sub i64 %41, 1
  %43 = load i64, ptr %10, align 8, !tbaa !23
  %44 = icmp sgt i64 %42, %43
  br i1 %44, label %45, label %47

45:                                               ; preds = %40
  %46 = load ptr, ptr @PyExc_ValueError, align 8, !tbaa !7
  call void @PyErr_SetString(ptr noundef %46, ptr noundef @.str.124)
  store i32 -1, ptr %4, align 4
  store i32 1, ptr %9, align 4
  br label %59

47:                                               ; preds = %40
  call void @llvm.lifetime.start.p0(i64 8, ptr %12) #9
  %48 = load ptr, ptr %8, align 8, !tbaa !39
  call void @LOCK_PTR(ptr noundef %48)
  %49 = load ptr, ptr %6, align 8, !tbaa !7
  %50 = load ptr, ptr %8, align 8, !tbaa !39
  %51 = getelementptr inbounds nuw %struct.tagCDataObject, ptr %50, i32 0, i32 1
  %52 = load ptr, ptr %51, align 16, !tbaa !46
  %53 = load i64, ptr %10, align 8, !tbaa !23
  %54 = call i64 @PyUnicode_AsWideChar(ptr noundef %49, ptr noundef %52, i64 noundef %53)
  store i64 %54, ptr %12, align 8, !tbaa !23
  %55 = load ptr, ptr %8, align 8, !tbaa !39
  call void @UNLOCK_PTR(ptr noundef %55)
  %56 = load i64, ptr %12, align 8, !tbaa !23
  %57 = icmp slt i64 %56, 0
  %58 = select i1 %57, i32 -1, i32 0
  store i32 %58, ptr %4, align 4
  store i32 1, ptr %9, align 4
  call void @llvm.lifetime.end.p0(i64 8, ptr %12) #9
  br label %59

59:                                               ; preds = %47, %45, %39
  call void @llvm.lifetime.end.p0(i64 8, ptr %11) #9
  call void @llvm.lifetime.end.p0(i64 8, ptr %10) #9
  br label %60

60:                                               ; preds = %59, %23, %16
  call void @llvm.lifetime.end.p0(i64 8, ptr %8) #9
  %61 = load i32, ptr %4, align 4
  ret i32 %61
}