; Function Attrs: nounwind uwtable
define internal range(i32 -1, 1) i32 @WCharArray_set_value(ptr noundef readonly captures(none) %0, ptr noundef %1, ptr readnone captures(none) %2) #0 {
  %4 = icmp eq ptr %1, null
  br i1 %4, label %5, label %7

5:                                                ; preds = %3
  %6 = load ptr, ptr @PyExc_TypeError, align 8, !tbaa !27
  tail call void @PyErr_SetString(ptr noundef %6, ptr noundef nonnull @.str.121) #17
  br label %32

7:                                                ; preds = %3
  %8 = getelementptr i8, ptr %1, i64 8
  %.val18 = load ptr, ptr %8, align 8, !tbaa !10
  %9 = getelementptr i8, ptr %.val18, i64 168
  %.val19 = load i64, ptr %9, align 8, !tbaa !12
  %10 = and i64 %.val19, 268435456
  %.not = icmp eq i64 %10, 0
  br i1 %.not, label %11, label %16

11:                                               ; preds = %7
  %12 = load ptr, ptr @PyExc_TypeError, align 8, !tbaa !27
  %13 = getelementptr inbounds nuw i8, ptr %.val18, i64 24
  %14 = load ptr, ptr %13, align 8, !tbaa !53
  %15 = tail call ptr (ptr, ptr, ...) @PyErr_Format(ptr noundef %12, ptr noundef nonnull @.str.123, ptr noundef %14) #17
  br label %32

16:                                               ; preds = %7
  %17 = getelementptr inbounds nuw i8, ptr %0, i64 40
  %18 = load i64, ptr %17, align 8, !tbaa !41
  %19 = lshr i64 %18, 2
  %20 = tail call i64 @PyUnicode_AsWideChar(ptr noundef nonnull %1, ptr noundef null, i64 noundef 0) #17
  %21 = icmp slt i64 %20, 0
  br i1 %21, label %32, label %22

22:                                               ; preds = %16
  %23 = add nsw i64 %20, -1
  %24 = icmp sgt i64 %23, %19
  br i1 %24, label %25, label %27

25:                                               ; preds = %22
  %26 = load ptr, ptr @PyExc_ValueError, align 8, !tbaa !27
  tail call void @PyErr_SetString(ptr noundef %26, ptr noundef nonnull @.str.124) #17
  br label %32

27:                                               ; preds = %22
  %28 = getelementptr inbounds nuw i8, ptr %0, i64 16
  %29 = load ptr, ptr %28, align 16, !tbaa !42
  %30 = tail call i64 @PyUnicode_AsWideChar(ptr noundef nonnull %1, ptr noundef %29, i64 noundef %19) #17
  %.lobit = ashr i64 %30, 63
  %31 = trunc nsw i64 %.lobit to i32
  br label %32

32:                                               ; preds = %25, %27, %16, %11, %5
  %.0 = phi i32 [ -1, %5 ], [ -1, %11 ], [ -1, %25 ], [ %31, %27 ], [ -1, %16 ]
  ret i32 %.0
}